Certificate:
    Data:
        Version: 3 (0x2)
        Serial Number:
            03:23:06:c4:cb:66:d8:a0:21:40:ec:f9:6e:5e:7d:00:dd:c5:de:64
        Signature Algorithm: ecdsa-with-SHA512
        Issuer: CN = test-ocsp
        Validity
            Not Before: Nov  6 16:45:54 2025 GMT
            Not After : Nov  4 16:45:54 2035 GMT
        Subject: CN = test-ocsp
        Subject Public Key Info:
            Public Key Algorithm: id-ecPublicKey
                Public-Key: (256 bit)
                pub:
                    04:39:90:22:55:d0:fe:23:ef:22:4a:87:c7:46:a6:
                    e4:9b:70:0c:e4:37:19:6f:c1:c9:34:79:64:c1:e9:
                    91:9a:0a:31:8c:49:0d:5f:8b:1d:d0:b8:a8:9d:e3:
                    bf:ee:9f:01:7d:07:7c:36:49:50:b6:5b:6e:09:6c:
                    27:ec:d5:c2:f3
                ASN1 OID: prime256v1
                NIST CURVE: P-256
        X509v3 extensions:
            X509v3 Subject Key Identifier: 
                B2:88:5E:BB:F3:63:C7:BE:0A:34:5D:93:35:12:31:9E:F5:BD:A6:E4
            X509v3 Authority Key Identifier: 
                B2:88:5E:BB:F3:63:C7:BE:0A:34:5D:93:35:12:31:9E:F5:BD:A6:E4
            X509v3 Basic Constraints: critical
                CA:TRUE
    Signature Algorithm: ecdsa-with-SHA512
    Signature Value:
        30:44:02:20:64:9b:d4:b8:a2:e5:f7:9c:cc:c1:db:c0:5e:2d:
        ad:26:09:2d:a4:24:3d:85:60:79:2e:ad:5a:fc:1c:91:db:8d:
        02:20:6b:a7:ea:f5:d2:07:76:ab:3a:f4:b5:38:45:02:e3:a7:
        ec:7e:f3:8b:29:1d:6a:38:3c:fd:94:1e:67:a2:1e:c2
-----BEGIN CERTIFICATE-----
MIIBfDCCASOgAwIBAgIUAyMGxMtm2KAhQOz5bl59AN3F3mQwCgYIKoZIzj0EAwQw
FDESMBAGA1UEAwwJdGVzdC1vY3NwMB4XDTI1MTEwNjE2NDU1NFoXDTM1MTEwNDE2
NDU1NFowFDESMBAGA1UEAwwJdGVzdC1vY3NwMFkwEwYHKoZIzj0CAQYIKoZIzj0D
AQcDQgAEOZAiVdD+I+8iSofHRqbkm3AM5DcZb8HJNHlkwemRmgoxjEkNX4sd0Lio
neO/7p8BfQd8NklQtltuCWwn7NXC86NTMFEwHQYDVR0OBBYEFLKIXrvzY8e+CjRd
kzUSMZ71vabkMB8GA1UdIwQYMBaAFLKIXrvzY8e+CjRdkzUSMZ71vabkMA8GA1Ud
EwEB/wQFMAMBAf8wCgYIKoZIzj0EAwQDRwAwRAIgZJvUuKLl95zMwdvAXi2tJgkt
pCQ9hWB5Lq1a/ByR240CIGun6vXSB3arOvS1OEUC46fsfvOLKR1qODz9lB5noh7C
-----END CERTIFICATE-----
