Certificate:
    Data:
        Version: 3 (0x2)
        Serial Number:
            28:c1:7e:dc:29:05:46:e7:4b:c4:e4:53:b4:e9:6f:c4:34:dd:af:f6
        Signature Algorithm: ecdsa-with-SHA512
        Issuer: C = EE, L = Tallinn, O = tara-local, CN = tara-ca.localhost
        Validity
            Not Before: Oct 14 11:12:47 2024 GMT
            Not After : Oct 14 11:12:47 2025 GMT
        Subject: C = EE, L = Tallinn, O = tara-local, CN = tara-ca.localhost
        Subject Public Key Info:
            Public Key Algorithm: id-ecPublicKey
                Public-Key: (256 bit)
                pub:
                    04:e3:9f:54:25:fe:72:53:dc:26:a8:64:84:22:aa:
                    84:73:91:77:1b:4d:ff:41:4d:bc:cc:53:58:98:e1:
                    9b:a2:f0:c4:c6:7f:1b:43:75:6f:c8:5b:71:25:45:
                    0c:42:be:35:37:0b:11:25:c3:3e:d2:78:43:53:97:
                    fd:35:92:be:75
                ASN1 OID: prime256v1
                NIST CURVE: P-256
        X509v3 extensions:
            X509v3 Subject Key Identifier:
                4F:45:FE:A7:80:10:1F:46:54:3A:68:93:D8:A4:F1:21:C2:8E:F4:65
            X509v3 Authority Key Identifier:
                4F:45:FE:A7:80:10:1F:46:54:3A:68:93:D8:A4:F1:21:C2:8E:F4:65
            X509v3 Basic Constraints: critical
                CA:TRUE
    Signature Algorithm: ecdsa-with-SHA512
    Signature Value:
        30:44:02:20:0a:44:89:c5:42:3e:7f:8f:4f:86:fb:a3:a5:f0:
        fe:7c:e5:ca:f1:f9:06:76:46:c7:0a:5f:61:0e:6c:01:1d:c0:
        02:20:15:4a:70:7a:6b:c0:75:4b:70:4d:bd:3c:e2:c1:41:db:
        b8:e1:07:be:2c:95:f3:c6:e6:32:8b:68:e0:c5:66:5e

-----BEGIN CERTIFICATE-----
MIIB9DCCAZugAwIBAgIUKMF+3CkFRudLxORTtOlvxDTdr/YwCgYIKoZIzj0EAwQw
UDELMAkGA1UEBhMCRUUxEDAOBgNVBAcMB1RhbGxpbm4xEzARBgNVBAoMCnRhcmEt
bG9jYWwxGjAYBgNVBAMMEXRhcmEtY2EubG9jYWxob3N0MB4XDTI0MTAxNDExMTI0
N1oXDTI1MTAxNDExMTI0N1owUDELMAkGA1UEBhMCRUUxEDAOBgNVBAcMB1RhbGxp
bm4xEzARBgNVBAoMCnRhcmEtbG9jYWwxGjAYBgNVBAMMEXRhcmEtY2EubG9jYWxo
b3N0MFkwEwYHKoZIzj0CAQYIKoZIzj0DAQcDQgAE459UJf5yU9wmqGSEIqqEc5F3
G03/QU28zFNYmOGbovDExn8bQ3VvyFtxJUUMQr41NwsRJcM+0nhDU5f9NZK+daNT
MFEwHQYDVR0OBBYEFE9F/qeAEB9GVDpok9ik8SHCjvRlMB8GA1UdIwQYMBaAFE9F
/qeAEB9GVDpok9ik8SHCjvRlMA8GA1UdEwEB/wQFMAMBAf8wCgYIKoZIzj0EAwQD
RwAwRAIgCkSJxUI+f49PhvujpfD+fOXK8fkGdkbHCl9hDmwBHcACIBVKcHprwHVL
cE29POLBQdu44Qe+LJXzxuYyi2jgxWZe
-----END CERTIFICATE-----
