Certificate:
    Data:
        Version: 3 (0x2)
        Serial Number:
            7e:fa:25:c9:37:53:63:03:71:97:08:8e:f0:49:60:8c:f4:6e:ea:c1
        Signature Algorithm: ecdsa-with-SHA512
        Issuer: C = EE, L = Tallinn, O = tara-local, CN = tara-ca.localhost
        Validity
            Not Before: Nov 18 13:24:42 2024 GMT
            Not After : Nov 15 13:24:42 2034 GMT
        Subject: CN = localhost
        Subject Public Key Info:
            Public Key Algorithm: id-ecPublicKey
                Public-Key: (256 bit)
                pub:
                    04:71:2a:92:5e:0f:01:65:e9:1a:ec:c7:91:0d:b6:
                    fd:10:4a:d6:0d:b6:ea:b7:4d:c4:86:89:f7:91:0f:
                    02:a0:92:b9:b4:d1:6f:c9:9b:52:fa:f0:2f:06:a7:
                    05:ca:2a:5e:e1:06:8f:28:ae:b0:96:30:40:0f:3b:
                    5d:84:a0:32:d3
                ASN1 OID: prime256v1
                NIST CURVE: P-256
        X509v3 extensions:
            X509v3 Authority Key Identifier:
                4F:45:FE:A7:80:10:1F:46:54:3A:68:93:D8:A4:F1:21:C2:8E:F4:65
            X509v3 Basic Constraints: critical
                CA:FALSE
            X509v3 Key Usage:
                Digital Signature, Key Encipherment
            X509v3 Subject Alternative Name:
                DNS:localhost
            X509v3 Subject Key Identifier:
                CE:A8:3B:EA:BF:C0:18:13:A8:A0:0F:ED:E8:BA:99:29:A8:7D:65:8A
    Signature Algorithm: ecdsa-with-SHA512
    Signature Value:
        30:46:02:21:00:df:80:57:f9:73:03:7f:99:8f:95:88:ed:6d:
        f1:77:01:f9:11:cf:7f:3e:14:db:fb:2e:33:9a:2b:a1:6e:a4:
        76:02:21:00:cb:76:07:a3:81:c1:63:1f:44:f0:a7:02:fa:ce:
        df:c4:57:cb:3c:5d:df:02:61:94:24:4b:01:34:77:08:1b:b7

-----BEGIN CERTIFICATE-----
MIIB2jCCAX+gAwIBAgIUfvolyTdTYwNxlwiO8ElgjPRu6sEwCgYIKoZIzj0EAwQw
UDELMAkGA1UEBhMCRUUxEDAOBgNVBAcMB1RhbGxpbm4xEzARBgNVBAoMCnRhcmEt
bG9jYWwxGjAYBgNVBAMMEXRhcmEtY2EubG9jYWxob3N0MB4XDTI0MTExODEzMjQ0
MloXDTM0MTExNTEzMjQ0MlowFDESMBAGA1UEAwwJbG9jYWxob3N0MFkwEwYHKoZI
zj0CAQYIKoZIzj0DAQcDQgAEcSqSXg8BZeka7MeRDbb9EErWDbbqt03Ehon3kQ8C
oJK5tNFvyZtS+vAvBqcFyipe4QaPKK6wljBADztdhKAy06NzMHEwHwYDVR0jBBgw
FoAUT0X+p4AQH0ZUOmiT2KTxIcKO9GUwDAYDVR0TAQH/BAIwADALBgNVHQ8EBAMC
BaAwFAYDVR0RBA0wC4IJbG9jYWxob3N0MB0GA1UdDgQWBBTOqDvqv8AYE6igD+3o
upkpqH1lijAKBggqhkjOPQQDBANJADBGAiEA34BX+XMDf5mPlYjtbfF3AfkRz38+
FNv7LjOaK6FupHYCIQDLdgejgcFjH0TwpwL6zt/EV8s8Xd8CYZQkSwE0dwgbtw==
-----END CERTIFICATE-----

