Certificate:
    Data:
        Version: 3 (0x2)
        Serial Number:
            50:76:6e:c3:f6:63:87:33:a1:b1:8d:67:65:10:ab:01:67:4d:21:a6
        Signature Algorithm: ecdsa-with-SHA384
        Issuer: CN = Test EEGovCA2025, organizationIdentifier = NTREE-17066049, O = Zetes Estonia O\C3\9C, C = EE
        Validity
            Not Before: Nov  4 12:58:33 2024 GMT
            Not After : Nov  4 12:58:32 2039 GMT
        Subject: CN = Test EEGovCA2025, organizationIdentifier = NTREE-17066049, O = Zetes Estonia O\C3\9C, C = EE
        Subject Public Key Info:
            Public Key Algorithm: id-ecPublicKey
                Public-Key: (384 bit)
                pub:
                    04:61:ca:6c:34:f5:5e:24:e7:47:1d:3d:a9:64:4b:
                    8c:81:8a:01:66:da:71:b2:07:42:ac:a2:60:ad:84:
                    cb:98:09:74:6f:83:e4:e3:c8:8b:90:aa:19:c3:bc:
                    70:43:8f:a6:70:33:1e:5c:89:1a:f0:6e:53:30:d0:
                    ef:1b:c6:84:2c:cf:99:df:1c:7f:60:3c:4e:fd:79:
                    9a:3c:d8:51:cd:d4:be:f2:f1:05:1c:2a:ed:a2:6f:
                    62:13:a1:de:ad:d9:69
                ASN1 OID: secp384r1
                NIST CURVE: P-384
        X509v3 extensions:
            X509v3 Basic Constraints: critical
                CA:TRUE, pathlen:1
            X509v3 Authority Key Identifier:
                E1:56:DF:AE:C4:97:39:17:EF:DE:0A:0C:6C:E5:72:B3:8B:D5:72:10
            X509v3 Certificate Policies:
                Policy: X509v3 Any Policy
                  CPS: https://repository-test.eidpki.ee
            X509v3 Subject Key Identifier:
                E1:56:DF:AE:C4:97:39:17:EF:DE:0A:0C:6C:E5:72:B3:8B:D5:72:10
            X509v3 Key Usage: critical
                Certificate Sign, CRL Sign
    Signature Algorithm: ecdsa-with-SHA384
    Signature Value:
        30:65:02:30:54:91:1c:21:96:bc:7e:2a:a0:d6:d3:f4:38:d0:
        9a:37:23:03:47:0a:f9:96:9b:82:5b:44:a1:9d:aa:be:94:20:
        b8:90:81:e2:da:72:ce:af:bb:fd:fc:32:db:db:21:af:02:31:
        00:cf:aa:78:7b:ab:15:df:e4:29:7b:44:2b:a4:b4:10:76:dc:
        4d:b6:ac:bc:b6:08:a8:31:5a:4f:e5:d6:0a:ae:72:b7:b9:d7:
        ed:80:65:2e:9a:6c:3d:c0:11:5b:17:e0:76

-----BEGIN CERTIFICATE-----
MIICpTCCAiugAwIBAgIUUHZuw/ZjhzOhsY1nZRCrAWdNIaYwCgYIKoZIzj0EAwMw
XTEZMBcGA1UEAwwQVGVzdCBFRUdvdkNBMjAyNTEXMBUGA1UEYQwOTlRSRUUtMTcw
NjYwNDkxGjAYBgNVBAoMEVpldGVzIEVzdG9uaWEgT8OcMQswCQYDVQQGEwJFRTAe
Fw0yNDExMDQxMjU4MzNaFw0zOTExMDQxMjU4MzJaMF0xGTAXBgNVBAMMEFRlc3Qg
RUVHb3ZDQTIwMjUxFzAVBgNVBGEMDk5UUkVFLTE3MDY2MDQ5MRowGAYDVQQKDBFa
ZXRlcyBFc3RvbmlhIE/DnDELMAkGA1UEBhMCRUUwdjAQBgcqhkjOPQIBBgUrgQQA
IgNiAARhymw09V4k50cdPalkS4yBigFm2nGyB0KsomCthMuYCXRvg+TjyIuQqhnD
vHBDj6ZwMx5ciRrwblMw0O8bxoQsz5nfHH9gPE79eZo82FHN1L7y8QUcKu2ib2IT
od6t2WmjgaswgagwEgYDVR0TAQH/BAgwBgEB/wIBATAfBgNVHSMEGDAWgBThVt+u
xJc5F+/eCgxs5XKzi9VyEDBCBgNVHSAEOzA5MDcGBFUdIAAwLzAtBggrBgEFBQcC
ARYhaHR0cHM6Ly9yZXBvc2l0b3J5LXRlc3QuZWlkcGtpLmVlMB0GA1UdDgQWBBTh
Vt+uxJc5F+/eCgxs5XKzi9VyEDAOBgNVHQ8BAf8EBAMCAQYwCgYIKoZIzj0EAwMD
aAAwZQIwVJEcIZa8fiqg1tP0ONCaNyMDRwr5lpuCW0Shnaq+lCC4kIHi2nLOr7v9
/DLb2yGvAjEAz6p4e6sV3+Qpe0QrpLQQdtxNtqy8tgioMVpP5dYKrnK3udftgGUu
mmw9wBFbF+B2
-----END CERTIFICATE-----
